; Function Attrs: mustprogress nounwind uwtable
define dso_local void @_ZN4node11UDPWrapBase9RecvStartERKN2v820FunctionCallbackInfoINS1_5ValueEEE(ptr nocapture noundef nonnull readonly align 8 dereferenceable(20) %args) #3 align 2 {
entry:
  %0 = load ptr, ptr %args, align 8
  %call3.i = tail call noundef i32 @_ZNK2v86Object18InternalFieldCountEv(ptr noundef nonnull align 1 dereferenceable(1) %0) #19
  %cmp.i = icmp slt i32 %call3.i, 3
  br i1 %cmp.i, label %do.body6.i, label %do.end7.i

do.body6.i:                                       ; preds = %entry
  tail call void @_ZN4node6AssertERKNS_13AssertionInfoE(ptr noundef nonnull align 8 dereferenceable(24) @_ZZN4node11UDPWrapBase10FromObjectEN2v85LocalINS1_6ObjectEEEE4args) #19
  tail call void @abort() #20
  unreachable

do.end7.i:                                        ; preds = %entry
  %1 = load i64, ptr %0, align 8
  %sub.i32.i = add i64 %1, -1
  %2 = inttoptr i64 %sub.i32.i to ptr
  %3 = load i64, ptr %2, align 8
  %sub.i26.i = add i64 %3, 11
  %4 = inttoptr i64 %sub.i26.i to ptr
  %5 = load i16, ptr %4, align 2
  %conv.i.i = zext i16 %5 to i32
  %cmp.i.i = icmp eq i16 %5, 1040
  %sub.i.i = add nsw i32 %conv.i.i, -1057
  %cmp1.i.i = icmp ult i32 %sub.i.i, 1002
  %6 = select i1 %cmp.i.i, i1 true, i1 %cmp1.i.i
  br i1 %6, label %if.then.i.i, label %if.end.i.i

if.then.i.i:                                      ; preds = %do.end7.i
  %sub.i38.i = add i64 %1, 39
  %7 = inttoptr i64 %sub.i38.i to ptr
  %8 = load i64, ptr %7, align 8
  %9 = inttoptr i64 %8 to ptr
  br label %_ZN4node11UDPWrapBase10FromObjectEN2v85LocalINS1_6ObjectEEE.exit

if.end.i.i:                                       ; preds = %do.end7.i
  %call7.i.i = tail call noundef ptr @_ZN2v86Object38SlowGetAlignedPointerFromInternalFieldEi(ptr noundef nonnull align 1 dereferenceable(1) %0, i32 noundef 2) #19
  br label %_ZN4node11UDPWrapBase10FromObjectEN2v85LocalINS1_6ObjectEEE.exit

_ZN4node11UDPWrapBase10FromObjectEN2v85LocalINS1_6ObjectEEE.exit: ; preds = %if.then.i.i, %if.end.i.i
  %retval.i.0.i = phi ptr [ %9, %if.then.i.i ], [ %call7.i.i, %if.end.i.i ]
  %10 = load ptr, ptr %args, align 8
  %cmp = icmp eq ptr %retval.i.0.i, null
  br i1 %cmp, label %if.then.i, label %cond.false

cond.false:                                       ; preds = %_ZN4node11UDPWrapBase10FromObjectEN2v85LocalINS1_6ObjectEEE.exit
  %vtable = load ptr, ptr %retval.i.0.i, align 8
  %vfn = getelementptr inbounds i8, ptr %vtable, i64 16
  %11 = load ptr, ptr %vfn, align 8
  %call9 = tail call noundef i32 %11(ptr noundef nonnull align 8 dereferenceable(16) %retval.i.0.i) #19
  %12 = sext i32 %call9 to i64
  %13 = shl nsw i64 %12, 32
  br label %if.then.i

if.then.i:                                        ; preds = %cond.false, %_ZN4node11UDPWrapBase10FromObjectEN2v85LocalINS1_6ObjectEEE.exit
  %cond = phi i64 [ %13, %cond.false ], [ -38654705664, %_ZN4node11UDPWrapBase10FromObjectEN2v85LocalINS1_6ObjectEEE.exit ]
  %arrayidx.i = getelementptr inbounds i8, ptr %10, i64 24
  store i64 %cond, ptr %arrayidx.i, align 8
  ret void
}